target datalayout = "e-m:e-p270:32:32-p271:32:32-p272:64:64-i64:64-i128:128-f80:128-n8:16:32:64-S128"
target triple = "x86_64-pc-linux-gnu"

%"class.llvm::SmallVectorBase" = type { ptr, i32, i32 }
%"class.llvm::MachineOperand" = type { i32, %union.anon.152, ptr, %"union.llvm::MachineOperand::ContentsUnion" }
%union.anon.152 = type { i32 }
%"union.llvm::MachineOperand::ContentsUnion" = type { %"class.llvm::ArrayRef.153" }
%"class.llvm::ArrayRef.153" = type { ptr, i64 }

; Function Attrs: mustprogress nounwind uwtable
define linkonce_odr hidden noundef ptr @_ZN4llvm25SmallVectorTemplateCommonINS_14MachineOperandEvE5beginEv(ptr noundef nonnull align 8 dereferenceable(16) %0) #0 comdat align 2 {
  %2 = alloca ptr, align 8
  store ptr %0, ptr %2, align 8
  %3 = load ptr, ptr %2, align 8
  %4 = getelementptr inbounds nuw %"class.llvm::SmallVectorBase", ptr %3, i32 0, i32 0
  %5 = load ptr, ptr %4, align 8
  ret ptr %5
}

; Function Attrs: mustprogress nounwind uwtable
define linkonce_odr hidden void @_ZN4llvm14MachineOperand6setImmEl(ptr noundef nonnull align 8 dereferenceable(32) %0, i64 noundef %1) #0 comdat align 2 {
  %3 = alloca ptr, align 8
  %4 = alloca i64, align 8
  store ptr %0, ptr %3, align 8
  store i64 %1, ptr %4, align 8
  %5 = load ptr, ptr %3, align 8
  %6 = load i64, ptr %4, align 8
  %7 = getelementptr inbounds nuw %"class.llvm::MachineOperand", ptr %5, i32 0, i32 3
  store i64 %6, ptr %7, align 8
  ret void
}

; Function Attrs: mustprogress nounwind uwtable
define dso_local noundef i32 @_ZN4llvm3X8626GetOppositeBranchConditionENS0_8CondCodeE(i32 noundef %0) #0 {
  %2 = alloca i32, align 4
  %3 = alloca i32, align 4
  store i32 %0, ptr %3, align 4
  %4 = load i32, ptr %3, align 4
  switch i32 %4, label %5 [
    i32 4, label %6
    i32 5, label %7
    i32 12, label %8
    i32 14, label %9
    i32 15, label %10
    i32 13, label %11
    i32 2, label %12
    i32 6, label %13
    i32 7, label %14
    i32 3, label %15
    i32 8, label %16
    i32 9, label %17
    i32 10, label %18
    i32 11, label %19
    i32 0, label %20
    i32 1, label %21
    i32 16, label %22
    i32 17, label %23
  ]

5:                                                ; preds = %1
  unreachable

6:                                                ; preds = %1
  store i32 5, ptr %2, align 4
  br label %24

7:                                                ; preds = %1
  store i32 4, ptr %2, align 4
  br label %24

8:                                                ; preds = %1
  store i32 13, ptr %2, align 4
  br label %24

9:                                                ; preds = %1
  store i32 15, ptr %2, align 4
  br label %24

10:                                               ; preds = %1
  store i32 14, ptr %2, align 4
  br label %24

11:                                               ; preds = %1
  store i32 12, ptr %2, align 4
  br label %24

12:                                               ; preds = %1
  store i32 3, ptr %2, align 4
  br label %24

13:                                               ; preds = %1
  store i32 7, ptr %2, align 4
  br label %24

14:                                               ; preds = %1
  store i32 6, ptr %2, align 4
  br label %24

15:                                               ; preds = %1
  store i32 2, ptr %2, align 4
  br label %24

16:                                               ; preds = %1
  store i32 9, ptr %2, align 4
  br label %24

17:                                               ; preds = %1
  store i32 8, ptr %2, align 4
  br label %24

18:                                               ; preds = %1
  store i32 11, ptr %2, align 4
  br label %24

19:                                               ; preds = %1
  store i32 10, ptr %2, align 4
  br label %24

20:                                               ; preds = %1
  store i32 1, ptr %2, align 4
  br label %24

21:                                               ; preds = %1
  store i32 0, ptr %2, align 4
  br label %24

22:                                               ; preds = %1
  store i32 17, ptr %2, align 4
  br label %24

23:                                               ; preds = %1
  store i32 16, ptr %2, align 4
  br label %24

24:                                               ; preds = %23, %22, %21, %20, %19, %18, %17, %16, %15, %14, %13, %12, %11, %10, %9, %8, %7, %6
  %25 = load i32, ptr %2, align 4
  ret i32 %25
}

; Function Attrs: mustprogress nounwind uwtable
define linkonce_odr hidden noundef i64 @_ZNK4llvm14MachineOperand6getImmEv(ptr noundef nonnull align 8 dereferenceable(32) %0) #0 comdat align 2 {
  %2 = alloca ptr, align 8
  store ptr %0, ptr %2, align 8
  %3 = load ptr, ptr %2, align 8
  %4 = getelementptr inbounds nuw %"class.llvm::MachineOperand", ptr %3, i32 0, i32 3
  %5 = load i64, ptr %4, align 8
  ret i64 %5
}

; Function Attrs: mustprogress nounwind uwtable
define linkonce_odr hidden noundef nonnull align 8 dereferenceable(32) ptr @_ZN4llvm25SmallVectorTemplateCommonINS_14MachineOperandEvEixEm(ptr noundef nonnull align 8 dereferenceable(16) %0, i64 noundef %1) #0 comdat align 2 {
  %3 = alloca ptr, align 8
  %4 = alloca i64, align 8
  store ptr %0, ptr %3, align 8
  store i64 %1, ptr %4, align 8
  %5 = load ptr, ptr %3, align 8
  %6 = call noundef ptr @_ZN4llvm25SmallVectorTemplateCommonINS_14MachineOperandEvE5beginEv(ptr noundef nonnull align 8 dereferenceable(16) %5)
  %7 = load i64, ptr %4, align 8
  %8 = getelementptr inbounds %"class.llvm::MachineOperand", ptr %6, i64 %7
  ret ptr %8
}

; Function Attrs: mustprogress nounwind uwtable
define dso_local noundef zeroext i1 @_ZNK4llvm12X86InstrInfo22reverseBranchConditionERNS_15SmallVectorImplINS_14MachineOperandEEE(ptr noundef nonnull align 8 dereferenceable(416) %0, ptr noundef nonnull align 8 dereferenceable(16) %1) unnamed_addr #0 align 2 {
  %3 = alloca ptr, align 8
  %4 = alloca ptr, align 8
  %5 = alloca i32, align 4
  store ptr %0, ptr %3, align 8
  store ptr %1, ptr %4, align 8
  %6 = load ptr, ptr %4, align 8
  %7 = call noundef nonnull align 8 dereferenceable(32) ptr @_ZN4llvm25SmallVectorTemplateCommonINS_14MachineOperandEvEixEm(ptr noundef nonnull align 8 dereferenceable(16) %6, i64 noundef 0)
  %8 = call noundef i64 @_ZNK4llvm14MachineOperand6getImmEv(ptr noundef nonnull align 8 dereferenceable(32) %7)
  %9 = trunc i64 %8 to i32
  store i32 %9, ptr %5, align 4
  %10 = load ptr, ptr %4, align 8
  %11 = call noundef nonnull align 8 dereferenceable(32) ptr @_ZN4llvm25SmallVectorTemplateCommonINS_14MachineOperandEvEixEm(ptr noundef nonnull align 8 dereferenceable(16) %10, i64 noundef 0)
  %12 = load i32, ptr %5, align 4
  %13 = call noundef i32 @_ZN4llvm3X8626GetOppositeBranchConditionENS0_8CondCodeE(i32 noundef %12)
  %14 = zext i32 %13 to i64
  call void @_ZN4llvm14MachineOperand6setImmEl(ptr noundef nonnull align 8 dereferenceable(32) %11, i64 noundef %14)
  ret i1 false
}