; Function Attrs: mustprogress nofree norecurse nosync nounwind willreturn memory(readwrite, inaccessiblemem: none) uwtable
define dso_local noundef zeroext i1 @_ZNK4llvm12X86InstrInfo22reverseBranchConditionERNS_15SmallVectorImplINS_14MachineOperandEEE(ptr nonnull readnone align 8 captures(none) %0, ptr noundef nonnull readonly align 8 captures(none) dereferenceable(16) %1) unnamed_addr #13 align 2 {
switch.lookup:
  %2 = load ptr, ptr %1, align 8
  %3 = getelementptr inbounds nuw i8, ptr %2, i64 16
  %4 = load i64, ptr %3, align 8
  %sext = shl i64 %4, 32
  %5 = ashr exact i64 %sext, 32
  %switch.gep = getelementptr inbounds [18 x i64], ptr @switch.table._ZNK4llvm12X86InstrInfo22reverseBranchConditionERNS_15SmallVectorImplINS_14MachineOperandEEE, i64 0, i64 %5
  %switch.load = load i64, ptr %switch.gep, align 8
  store i64 %switch.load, ptr %3, align 8
  ret i1 false
}